target datalayout = "e-m:e-p270:32:32-p271:32:32-p272:64:64-i64:64-i128:128-f80:128-n8:16:32:64-S128"
target triple = "x86_64-pc-linux-gnu"

%"class.g2o::EstimatePropagator::AdjacencyMapEntry" = type { ptr, %"class.std::set", ptr, double, i32, i8, %"struct.std::_Rb_tree_iterator" }
%"class.std::set" = type { %"class.std::_Rb_tree" }
%"class.std::_Rb_tree" = type { %"struct.std::_Rb_tree<g2o::HyperGraph::Vertex *, g2o::HyperGraph::Vertex *, std::_Identity<g2o::HyperGraph::Vertex *>, std::less<g2o::HyperGraph::Vertex *>>::_Rb_tree_impl" }
%"struct.std::_Rb_tree<g2o::HyperGraph::Vertex *, g2o::HyperGraph::Vertex *, std::_Identity<g2o::HyperGraph::Vertex *>, std::less<g2o::HyperGraph::Vertex *>>::_Rb_tree_impl" = type { [8 x i8], %"struct.std::_Rb_tree_header" }
%"struct.std::_Rb_tree_header" = type { %"struct.std::_Rb_tree_node_base", i64 }
%"struct.std::_Rb_tree_node_base" = type { i32, ptr, ptr, ptr }
%"struct.std::_Rb_tree_iterator" = type { ptr }
%"class.std::multimap" = type { %"class.std::_Rb_tree.60" }
%"class.std::_Rb_tree.60" = type { %"struct.std::_Rb_tree<double, std::pair<const double, g2o::EstimatePropagator::AdjacencyMapEntry *>, std::_Select1st<std::pair<const double, g2o::EstimatePropagator::AdjacencyMapEntry *>>, std::less<double>>::_Rb_tree_impl" }
%"struct.std::_Rb_tree<double, std::pair<const double, g2o::EstimatePropagator::AdjacencyMapEntry *>, std::_Select1st<std::pair<const double, g2o::EstimatePropagator::AdjacencyMapEntry *>>, std::less<double>>::_Rb_tree_impl" = type { [8 x i8], %"struct.std::_Rb_tree_header" }
%"struct.std::pair.88" = type { double, ptr }
%"struct.std::_Rb_tree_node.111" = type { %"struct.std::_Rb_tree_node_base", %"struct.__gnu_cxx::__aligned_membuf.112" }
%"struct.__gnu_cxx::__aligned_membuf.112" = type { [16 x i8] }
%"struct.std::_Rb_tree_const_iterator.132" = type { ptr }

; Function Attrs: mustprogress nounwind uwtable
define linkonce_odr void @_ZNSt15__new_allocatorISt13_Rb_tree_nodeISt4pairIKdPN3g2o18EstimatePropagator17AdjacencyMapEntryEEEE10deallocateEPS8_m(ptr noundef nonnull align 1 dereferenceable(1) %0, ptr noundef %1, i64 noundef %2) #4 comdat align 2 {
  %4 = alloca ptr, align 8
  %5 = alloca ptr, align 8
  %6 = alloca i64, align 8
  store ptr %0, ptr %4, align 8, !tbaa !253
  store ptr %1, ptr %5, align 8, !tbaa !263
  store i64 %2, ptr %6, align 8, !tbaa !109
  %7 = load ptr, ptr %5, align 8, !tbaa !263
  %8 = load i64, ptr %6, align 8, !tbaa !109
  %9 = mul i64 %8, 48
  call void @_ZdlPvm(ptr noundef %7, i64 noundef %9) #20
  ret void
}

; Function Attrs: mustprogress nounwind uwtable
define linkonce_odr void @_ZNSt15__new_allocatorISt13_Rb_tree_nodeISt4pairIKdPN3g2o18EstimatePropagator17AdjacencyMapEntryEEEE7destroyIS7_EEvPT_(ptr noundef nonnull align 1 dereferenceable(1) %0, ptr noundef %1) #4 comdat align 2 {
  %3 = alloca ptr, align 8
  %4 = alloca ptr, align 8
  store ptr %0, ptr %3, align 8, !tbaa !253
  store ptr %1, ptr %4, align 8, !tbaa !266
  ret void
}

; Function Attrs: mustprogress uwtable
define linkonce_odr void @_ZNSt16allocator_traitsISaISt13_Rb_tree_nodeISt4pairIKdPN3g2o18EstimatePropagator17AdjacencyMapEntryEEEEE10deallocateERS9_PS8_m(ptr noundef nonnull align 1 dereferenceable(1) %0, ptr noundef %1, i64 noundef %2) #6 comdat align 2 {
  %4 = alloca ptr, align 8
  %5 = alloca ptr, align 8
  %6 = alloca i64, align 8
  store ptr %0, ptr %4, align 8, !tbaa !249
  store ptr %1, ptr %5, align 8, !tbaa !263
  store i64 %2, ptr %6, align 8, !tbaa !109
  %7 = load ptr, ptr %4, align 8, !tbaa !249
  %8 = load ptr, ptr %5, align 8, !tbaa !263
  %9 = load i64, ptr %6, align 8, !tbaa !109
  call void @_ZNSt15__new_allocatorISt13_Rb_tree_nodeISt4pairIKdPN3g2o18EstimatePropagator17AdjacencyMapEntryEEEE10deallocateEPS8_m(ptr noundef nonnull align 1 dereferenceable(1) %7, ptr noundef %8, i64 noundef %9)
  ret void
}

; Function Attrs: noinline noreturn nounwind uwtable
define linkonce_odr hidden void @__clang_call_terminate(ptr noundef %0) #11 comdat {
  %2 = call ptr @__cxa_begin_catch(ptr %0) #3
  call void @_ZSt9terminatev() #19
  unreachable
}

; Function Attrs: mustprogress nounwind uwtable
define linkonce_odr void @_ZNSt16allocator_traitsISaISt13_Rb_tree_nodeISt4pairIKdPN3g2o18EstimatePropagator17AdjacencyMapEntryEEEEE7destroyIS7_EEvRS9_PT_(ptr noundef nonnull align 1 dereferenceable(1) %0, ptr noundef %1) #4 comdat align 2 {
  %3 = alloca ptr, align 8
  %4 = alloca ptr, align 8
  store ptr %0, ptr %3, align 8, !tbaa !249
  store ptr %1, ptr %4, align 8, !tbaa !266
  %5 = load ptr, ptr %3, align 8, !tbaa !249
  %6 = load ptr, ptr %4, align 8, !tbaa !266
  call void @_ZNSt15__new_allocatorISt13_Rb_tree_nodeISt4pairIKdPN3g2o18EstimatePropagator17AdjacencyMapEntryEEEE7destroyIS7_EEvPT_(ptr noundef nonnull align 1 dereferenceable(1) %5, ptr noundef %6) #3
  ret void
}

; Function Attrs: mustprogress nounwind uwtable
define linkonce_odr noundef nonnull align 1 dereferenceable(1) ptr @_ZNSt8_Rb_treeIdSt4pairIKdPN3g2o18EstimatePropagator17AdjacencyMapEntryEESt10_Select1stIS6_ESt4lessIdESaIS6_EE21_M_get_Node_allocatorEv(ptr noundef nonnull align 8 dereferenceable(48) %0) #4 comdat align 2 {
  %2 = alloca ptr, align 8
  store ptr %0, ptr %2, align 8, !tbaa !245
  %3 = load ptr, ptr %2, align 8
  %4 = getelementptr inbounds nuw %"class.std::_Rb_tree.60", ptr %3, i32 0, i32 0
  ret ptr %4
}

; Function Attrs: mustprogress nounwind uwtable
define linkonce_odr void @_ZNSt8_Rb_treeIdSt4pairIKdPN3g2o18EstimatePropagator17AdjacencyMapEntryEESt10_Select1stIS6_ESt4lessIdESaIS6_EE11_M_put_nodeEPSt13_Rb_tree_nodeIS6_E(ptr noundef nonnull align 8 dereferenceable(48) %0, ptr noundef %1) #4 comdat align 2 personality ptr @__gxx_personality_v0 {
  %3 = alloca ptr, align 8
  %4 = alloca ptr, align 8
  store ptr %0, ptr %3, align 8, !tbaa !245
  store ptr %1, ptr %4, align 8, !tbaa !263
  %5 = load ptr, ptr %3, align 8
  %6 = call noundef nonnull align 1 dereferenceable(1) ptr @_ZNSt8_Rb_treeIdSt4pairIKdPN3g2o18EstimatePropagator17AdjacencyMapEntryEESt10_Select1stIS6_ESt4lessIdESaIS6_EE21_M_get_Node_allocatorEv(ptr noundef nonnull align 8 dereferenceable(48) %5) #3
  %7 = load ptr, ptr %4, align 8, !tbaa !263
  invoke void @_ZNSt16allocator_traitsISaISt13_Rb_tree_nodeISt4pairIKdPN3g2o18EstimatePropagator17AdjacencyMapEntryEEEEE10deallocateERS9_PS8_m(ptr noundef nonnull align 1 dereferenceable(1) %6, ptr noundef %7, i64 noundef 1)
          to label %8 unwind label %9

8:                                                ; preds = %2
  ret void

9:                                                ; preds = %2
  %10 = landingpad { ptr, i32 }
          catch ptr null
  %11 = extractvalue { ptr, i32 } %10, 0
  call void @__clang_call_terminate(ptr %11) #19
  unreachable
}

; Function Attrs: mustprogress nounwind uwtable
define linkonce_odr void @_ZNSt8_Rb_treeIdSt4pairIKdPN3g2o18EstimatePropagator17AdjacencyMapEntryEESt10_Select1stIS6_ESt4lessIdESaIS6_EE15_M_destroy_nodeEPSt13_Rb_tree_nodeIS6_E(ptr noundef nonnull align 8 dereferenceable(48) %0, ptr noundef %1) #4 comdat align 2 personality ptr @__gxx_personality_v0 {
  %3 = alloca ptr, align 8
  %4 = alloca ptr, align 8
  store ptr %0, ptr %3, align 8, !tbaa !245
  store ptr %1, ptr %4, align 8, !tbaa !263
  %5 = load ptr, ptr %3, align 8
  %6 = call noundef nonnull align 1 dereferenceable(1) ptr @_ZNSt8_Rb_treeIdSt4pairIKdPN3g2o18EstimatePropagator17AdjacencyMapEntryEESt10_Select1stIS6_ESt4lessIdESaIS6_EE21_M_get_Node_allocatorEv(ptr noundef nonnull align 8 dereferenceable(48) %5) #3
  %7 = load ptr, ptr %4, align 8, !tbaa !263
  %8 = invoke noundef ptr @_ZNSt13_Rb_tree_nodeISt4pairIKdPN3g2o18EstimatePropagator17AdjacencyMapEntryEEE9_M_valptrEv(ptr noundef nonnull align 8 dereferenceable(48) %7)
          to label %9 unwind label %10

9:                                                ; preds = %2
  call void @_ZNSt16allocator_traitsISaISt13_Rb_tree_nodeISt4pairIKdPN3g2o18EstimatePropagator17AdjacencyMapEntryEEEEE7destroyIS7_EEvRS9_PT_(ptr noundef nonnull align 1 dereferenceable(1) %6, ptr noundef %8) #3
  ret void

10:                                               ; preds = %2
  %11 = landingpad { ptr, i32 }
          catch ptr null
  %12 = extractvalue { ptr, i32 } %11, 0
  call void @__clang_call_terminate(ptr %12) #19
  unreachable
}

; Function Attrs: mustprogress nounwind uwtable
define linkonce_odr void @_ZNSt8_Rb_treeIdSt4pairIKdPN3g2o18EstimatePropagator17AdjacencyMapEntryEESt10_Select1stIS6_ESt4lessIdESaIS6_EE12_M_drop_nodeEPSt13_Rb_tree_nodeIS6_E(ptr noundef nonnull align 8 dereferenceable(48) %0, ptr noundef %1) #4 comdat align 2 {
  %3 = alloca ptr, align 8
  %4 = alloca ptr, align 8
  store ptr %0, ptr %3, align 8, !tbaa !245
  store ptr %1, ptr %4, align 8, !tbaa !263
  %5 = load ptr, ptr %3, align 8
  %6 = load ptr, ptr %4, align 8, !tbaa !263
  call void @_ZNSt8_Rb_treeIdSt4pairIKdPN3g2o18EstimatePropagator17AdjacencyMapEntryEESt10_Select1stIS6_ESt4lessIdESaIS6_EE15_M_destroy_nodeEPSt13_Rb_tree_nodeIS6_E(ptr noundef nonnull align 8 dereferenceable(48) %5, ptr noundef %6) #3
  %7 = load ptr, ptr %4, align 8, !tbaa !263
  call void @_ZNSt8_Rb_treeIdSt4pairIKdPN3g2o18EstimatePropagator17AdjacencyMapEntryEESt10_Select1stIS6_ESt4lessIdESaIS6_EE11_M_put_nodeEPSt13_Rb_tree_nodeIS6_E(ptr noundef nonnull align 8 dereferenceable(48) %5, ptr noundef %7) #3
  ret void
}

; Function Attrs: mustprogress nounwind uwtable
define linkonce_odr noundef ptr @_ZN9__gnu_cxx16__aligned_membufISt4pairIKdPN3g2o18EstimatePropagator17AdjacencyMapEntryEEE7_M_addrEv(ptr noundef nonnull align 8 dereferenceable(16) %0) #4 comdat align 2 {
  %2 = alloca ptr, align 8
  store ptr %0, ptr %2, align 8, !tbaa !268
  %3 = load ptr, ptr %2, align 8
  %4 = getelementptr inbounds nuw %"struct.__gnu_cxx::__aligned_membuf.112", ptr %3, i32 0, i32 0
  ret ptr %4
}

; Function Attrs: mustprogress nounwind uwtable
define linkonce_odr void @_ZNSt8_Rb_treeIdSt4pairIKdPN3g2o18EstimatePropagator17AdjacencyMapEntryEESt10_Select1stIS6_ESt4lessIdESaIS6_EE12_M_erase_auxESt23_Rb_tree_const_iteratorIS6_E(ptr noundef nonnull align 8 dereferenceable(48) %0, ptr %1) #4 comdat align 2 {
  %3 = alloca %"struct.std::_Rb_tree_const_iterator.132", align 8
  %4 = alloca ptr, align 8
  %5 = alloca ptr, align 8
  %6 = getelementptr inbounds nuw %"struct.std::_Rb_tree_const_iterator.132", ptr %3, i32 0, i32 0
  store ptr %1, ptr %6, align 8
  store ptr %0, ptr %4, align 8, !tbaa !245
  %7 = load ptr, ptr %4, align 8
  call void @llvm.lifetime.start.p0(i64 8, ptr %5) #3
  %8 = getelementptr inbounds nuw %"struct.std::_Rb_tree_const_iterator.132", ptr %3, i32 0, i32 0
  %9 = load ptr, ptr %8, align 8, !tbaa !368
  %10 = getelementptr inbounds nuw %"class.std::_Rb_tree.60", ptr %7, i32 0, i32 0
  %11 = getelementptr inbounds i8, ptr %10, i64 8
  %12 = getelementptr inbounds nuw %"struct.std::_Rb_tree_header", ptr %11, i32 0, i32 0
  %13 = call noundef nonnull ptr @_ZSt28_Rb_tree_rebalance_for_erasePSt18_Rb_tree_node_baseRS_(ptr noundef %9, ptr noundef nonnull align 8 dereferenceable(32) %12) #3
  store ptr %13, ptr %5, align 8, !tbaa !263
  %14 = load ptr, ptr %5, align 8, !tbaa !263
  call void @_ZNSt8_Rb_treeIdSt4pairIKdPN3g2o18EstimatePropagator17AdjacencyMapEntryEESt10_Select1stIS6_ESt4lessIdESaIS6_EE12_M_drop_nodeEPSt13_Rb_tree_nodeIS6_E(ptr noundef nonnull align 8 dereferenceable(48) %7, ptr noundef %14) #3
  %15 = getelementptr inbounds nuw %"class.std::_Rb_tree.60", ptr %7, i32 0, i32 0
  %16 = getelementptr inbounds i8, ptr %15, i64 8
  %17 = getelementptr inbounds nuw %"struct.std::_Rb_tree_header", ptr %16, i32 0, i32 1
  %18 = load i64, ptr %17, align 8, !tbaa !180
  %19 = add i64 %18, -1
  store i64 %19, ptr %17, align 8, !tbaa !180
  call void @llvm.lifetime.end.p0(i64 8, ptr %5) #3
  ret void
}

; Function Attrs: mustprogress nounwind uwtable
define linkonce_odr void @_ZNSt23_Rb_tree_const_iteratorISt4pairIKdPN3g2o18EstimatePropagator17AdjacencyMapEntryEEEC2ERKSt17_Rb_tree_iteratorIS6_E(ptr noundef nonnull align 8 dereferenceable(8) %0, ptr noundef nonnull align 8 dereferenceable(8) %1) unnamed_addr #4 comdat align 2 {
  %3 = alloca ptr, align 8
  %4 = alloca ptr, align 8
  store ptr %0, ptr %3, align 8, !tbaa !370
  store ptr %1, ptr %4, align 8, !tbaa !18
  %5 = load ptr, ptr %3, align 8
  %6 = getelementptr inbounds nuw %"struct.std::_Rb_tree_const_iterator.132", ptr %5, i32 0, i32 0
  %7 = load ptr, ptr %4, align 8, !tbaa !18
  %8 = getelementptr inbounds nuw %"struct.std::_Rb_tree_iterator", ptr %7, i32 0, i32 0
  %9 = load ptr, ptr %8, align 8, !tbaa !20
  store ptr %9, ptr %6, align 8, !tbaa !368
  ret void
}

; Function Attrs: mustprogress nounwind uwtable
define linkonce_odr noundef nonnull align 8 dereferenceable(8) ptr @_ZNSt17_Rb_tree_iteratorISt4pairIKdPN3g2o18EstimatePropagator17AdjacencyMapEntryEEEppEv(ptr noundef nonnull align 8 dereferenceable(8) %0) #4 comdat align 2 {
  %2 = alloca ptr, align 8
  store ptr %0, ptr %2, align 8, !tbaa !18
  %3 = load ptr, ptr %2, align 8
  %4 = getelementptr inbounds nuw %"struct.std::_Rb_tree_iterator", ptr %3, i32 0, i32 0
  %5 = load ptr, ptr %4, align 8, !tbaa !20
  %6 = call noundef ptr @_ZSt18_Rb_tree_incrementPSt18_Rb_tree_node_base(ptr noundef %5) #9
  %7 = getelementptr inbounds nuw %"struct.std::_Rb_tree_iterator", ptr %3, i32 0, i32 0
  store ptr %6, ptr %7, align 8, !tbaa !20
  ret ptr %3
}

; Function Attrs: mustprogress nounwind uwtable
define linkonce_odr noundef ptr @_ZN9__gnu_cxx16__aligned_membufISt4pairIKdPN3g2o18EstimatePropagator17AdjacencyMapEntryEEE6_M_ptrEv(ptr noundef nonnull align 8 dereferenceable(16) %0) #4 comdat align 2 {
  %2 = alloca ptr, align 8
  store ptr %0, ptr %2, align 8, !tbaa !268
  %3 = load ptr, ptr %2, align 8
  %4 = call noundef ptr @_ZN9__gnu_cxx16__aligned_membufISt4pairIKdPN3g2o18EstimatePropagator17AdjacencyMapEntryEEE7_M_addrEv(ptr noundef nonnull align 8 dereferenceable(16) %3) #3
  ret ptr %4
}

; Function Attrs: mustprogress nounwind uwtable
define linkonce_odr void @_ZNSt17_Rb_tree_iteratorISt4pairIKdPN3g2o18EstimatePropagator17AdjacencyMapEntryEEEC2EPSt18_Rb_tree_node_base(ptr noundef nonnull align 8 dereferenceable(8) %0, ptr noundef %1) unnamed_addr #4 comdat align 2 {
  %3 = alloca ptr, align 8
  %4 = alloca ptr, align 8
  store ptr %0, ptr %3, align 8, !tbaa !18
  store ptr %1, ptr %4, align 8, !tbaa !120
  %5 = load ptr, ptr %3, align 8
  %6 = getelementptr inbounds nuw %"struct.std::_Rb_tree_iterator", ptr %5, i32 0, i32 0
  %7 = load ptr, ptr %4, align 8, !tbaa !120
  store ptr %7, ptr %6, align 8, !tbaa !20
  ret void
}

; Function Attrs: mustprogress nounwind uwtable
define linkonce_odr ptr @_ZNSt8_Rb_treeIdSt4pairIKdPN3g2o18EstimatePropagator17AdjacencyMapEntryEESt10_Select1stIS6_ESt4lessIdESaIS6_EE3endEv(ptr noundef nonnull align 8 dereferenceable(48) %0) #4 comdat align 2 {
  %2 = alloca %"struct.std::_Rb_tree_iterator", align 8
  %3 = alloca ptr, align 8
  store ptr %0, ptr %3, align 8, !tbaa !245
  %4 = load ptr, ptr %3, align 8
  %5 = getelementptr inbounds nuw %"class.std::_Rb_tree.60", ptr %4, i32 0, i32 0
  %6 = getelementptr inbounds i8, ptr %5, i64 8
  %7 = getelementptr inbounds nuw %"struct.std::_Rb_tree_header", ptr %6, i32 0, i32 0
  call void @_ZNSt17_Rb_tree_iteratorISt4pairIKdPN3g2o18EstimatePropagator17AdjacencyMapEntryEEEC2EPSt18_Rb_tree_node_base(ptr noundef nonnull align 8 dereferenceable(8) %2, ptr noundef %7) #3
  %8 = getelementptr inbounds nuw %"struct.std::_Rb_tree_iterator", ptr %2, i32 0, i32 0
  %9 = load ptr, ptr %8, align 8
  ret ptr %9
}

; Function Attrs: mustprogress uwtable
define linkonce_odr ptr @_ZNSt8_Rb_treeIdSt4pairIKdPN3g2o18EstimatePropagator17AdjacencyMapEntryEESt10_Select1stIS6_ESt4lessIdESaIS6_EE5eraseB5cxx11ESt17_Rb_tree_iteratorIS6_E(ptr noundef nonnull align 8 dereferenceable(48) %0, ptr %1) #6 comdat align 2 {
  %3 = alloca %"struct.std::_Rb_tree_iterator", align 8
  %4 = alloca %"struct.std::_Rb_tree_iterator", align 8
  %5 = alloca ptr, align 8
  %6 = alloca %"struct.std::_Rb_tree_const_iterator.132", align 8
  %7 = getelementptr inbounds nuw %"struct.std::_Rb_tree_iterator", ptr %4, i32 0, i32 0
  store ptr %1, ptr %7, align 8
  store ptr %0, ptr %5, align 8, !tbaa !245
  %8 = load ptr, ptr %5, align 8
  br label %9

9:                                                ; preds = %2
  br label %10

10:                                               ; preds = %9
  call void @llvm.memcpy.p0.p0.i64(ptr align 8 %3, ptr align 8 %4, i64 8, i1 false), !tbaa.struct !119
  %11 = call noundef nonnull align 8 dereferenceable(8) ptr @_ZNSt17_Rb_tree_iteratorISt4pairIKdPN3g2o18EstimatePropagator17AdjacencyMapEntryEEEppEv(ptr noundef nonnull align 8 dereferenceable(8) %3) #3
  call void @_ZNSt23_Rb_tree_const_iteratorISt4pairIKdPN3g2o18EstimatePropagator17AdjacencyMapEntryEEEC2ERKSt17_Rb_tree_iteratorIS6_E(ptr noundef nonnull align 8 dereferenceable(8) %6, ptr noundef nonnull align 8 dereferenceable(8) %4) #3
  %12 = getelementptr inbounds nuw %"struct.std::_Rb_tree_const_iterator.132", ptr %6, i32 0, i32 0
  %13 = load ptr, ptr %12, align 8
  call void @_ZNSt8_Rb_treeIdSt4pairIKdPN3g2o18EstimatePropagator17AdjacencyMapEntryEESt10_Select1stIS6_ESt4lessIdESaIS6_EE12_M_erase_auxESt23_Rb_tree_const_iteratorIS6_E(ptr noundef nonnull align 8 dereferenceable(48) %8, ptr %13)
  %14 = getelementptr inbounds nuw %"struct.std::_Rb_tree_iterator", ptr %3, i32 0, i32 0
  %15 = load ptr, ptr %14, align 8
  ret ptr %15
}

; Function Attrs: mustprogress nounwind uwtable
define linkonce_odr noundef ptr @_ZNSt13_Rb_tree_nodeISt4pairIKdPN3g2o18EstimatePropagator17AdjacencyMapEntryEEE9_M_valptrEv(ptr noundef nonnull align 8 dereferenceable(48) %0) #4 comdat align 2 {
  %2 = alloca ptr, align 8
  store ptr %0, ptr %2, align 8, !tbaa !263
  %3 = load ptr, ptr %2, align 8
  %4 = getelementptr inbounds nuw %"struct.std::_Rb_tree_node.111", ptr %3, i32 0, i32 1
  %5 = call noundef ptr @_ZN9__gnu_cxx16__aligned_membufISt4pairIKdPN3g2o18EstimatePropagator17AdjacencyMapEntryEEE6_M_ptrEv(ptr noundef nonnull align 8 dereferenceable(16) %4) #3
  ret ptr %5
}

; Function Attrs: mustprogress nounwind uwtable
define linkonce_odr ptr @_ZNSt8_Rb_treeIdSt4pairIKdPN3g2o18EstimatePropagator17AdjacencyMapEntryEESt10_Select1stIS6_ESt4lessIdESaIS6_EE5beginEv(ptr noundef nonnull align 8 dereferenceable(48) %0) #4 comdat align 2 {
  %2 = alloca %"struct.std::_Rb_tree_iterator", align 8
  %3 = alloca ptr, align 8
  store ptr %0, ptr %3, align 8, !tbaa !245
  %4 = load ptr, ptr %3, align 8
  %5 = getelementptr inbounds nuw %"class.std::_Rb_tree.60", ptr %4, i32 0, i32 0
  %6 = getelementptr inbounds i8, ptr %5, i64 8
  %7 = getelementptr inbounds nuw %"struct.std::_Rb_tree_header", ptr %6, i32 0, i32 0
  %8 = getelementptr inbounds nuw %"struct.std::_Rb_tree_node_base", ptr %7, i32 0, i32 2
  %9 = load ptr, ptr %8, align 8, !tbaa !178
  call void @_ZNSt17_Rb_tree_iteratorISt4pairIKdPN3g2o18EstimatePropagator17AdjacencyMapEntryEEEC2EPSt18_Rb_tree_node_base(ptr noundef nonnull align 8 dereferenceable(8) %2, ptr noundef %9) #3
  %10 = getelementptr inbounds nuw %"struct.std::_Rb_tree_iterator", ptr %2, i32 0, i32 0
  %11 = load ptr, ptr %10, align 8
  ret ptr %11
}

; Function Attrs: mustprogress nounwind uwtable
define linkonce_odr ptr @_ZNSt8multimapIdPN3g2o18EstimatePropagator17AdjacencyMapEntryESt4lessIdESaISt4pairIKdS3_EEE3endEv(ptr noundef nonnull align 8 dereferenceable(48) %0) #4 comdat align 2 {
  %2 = alloca %"struct.std::_Rb_tree_iterator", align 8
  %3 = alloca ptr, align 8
  store ptr %0, ptr %3, align 8, !tbaa !121
  %4 = load ptr, ptr %3, align 8
  %5 = getelementptr inbounds nuw %"class.std::multimap", ptr %4, i32 0, i32 0
  %6 = call ptr @_ZNSt8_Rb_treeIdSt4pairIKdPN3g2o18EstimatePropagator17AdjacencyMapEntryEESt10_Select1stIS6_ESt4lessIdESaIS6_EE3endEv(ptr noundef nonnull align 8 dereferenceable(48) %5) #3
  %7 = getelementptr inbounds nuw %"struct.std::_Rb_tree_iterator", ptr %2, i32 0, i32 0
  store ptr %6, ptr %7, align 8
  %8 = getelementptr inbounds nuw %"struct.std::_Rb_tree_iterator", ptr %2, i32 0, i32 0
  %9 = load ptr, ptr %8, align 8
  ret ptr %9
}

; Function Attrs: mustprogress uwtable
define linkonce_odr ptr @_ZNSt8multimapIdPN3g2o18EstimatePropagator17AdjacencyMapEntryESt4lessIdESaISt4pairIKdS3_EEE5eraseB5cxx11ESt17_Rb_tree_iteratorIS8_E(ptr noundef nonnull align 8 dereferenceable(48) %0, ptr %1) #6 comdat align 2 {
  %3 = alloca %"struct.std::_Rb_tree_iterator", align 8
  %4 = alloca %"struct.std::_Rb_tree_iterator", align 8
  %5 = alloca ptr, align 8
  %6 = alloca %"struct.std::_Rb_tree_iterator", align 8
  %7 = getelementptr inbounds nuw %"struct.std::_Rb_tree_iterator", ptr %4, i32 0, i32 0
  store ptr %1, ptr %7, align 8
  store ptr %0, ptr %5, align 8, !tbaa !121
  %8 = load ptr, ptr %5, align 8
  %9 = getelementptr inbounds nuw %"class.std::multimap", ptr %8, i32 0, i32 0
  call void @llvm.memcpy.p0.p0.i64(ptr align 8 %6, ptr align 8 %4, i64 8, i1 false), !tbaa.struct !119
  %10 = getelementptr inbounds nuw %"struct.std::_Rb_tree_iterator", ptr %6, i32 0, i32 0
  %11 = load ptr, ptr %10, align 8
  %12 = call ptr @_ZNSt8_Rb_treeIdSt4pairIKdPN3g2o18EstimatePropagator17AdjacencyMapEntryEESt10_Select1stIS6_ESt4lessIdESaIS6_EE5eraseB5cxx11ESt17_Rb_tree_iteratorIS6_E(ptr noundef nonnull align 8 dereferenceable(48) %9, ptr %11)
  %13 = getelementptr inbounds nuw %"struct.std::_Rb_tree_iterator", ptr %3, i32 0, i32 0
  store ptr %12, ptr %13, align 8
  %14 = getelementptr inbounds nuw %"struct.std::_Rb_tree_iterator", ptr %3, i32 0, i32 0
  %15 = load ptr, ptr %14, align 8
  ret ptr %15
}

; Function Attrs: mustprogress nounwind uwtable
define linkonce_odr noundef ptr @_ZNKSt17_Rb_tree_iteratorISt4pairIKdPN3g2o18EstimatePropagator17AdjacencyMapEntryEEEptEv(ptr noundef nonnull align 8 dereferenceable(8) %0) #4 comdat align 2 {
  %2 = alloca ptr, align 8
  store ptr %0, ptr %2, align 8, !tbaa !18
  %3 = load ptr, ptr %2, align 8
  %4 = getelementptr inbounds nuw %"struct.std::_Rb_tree_iterator", ptr %3, i32 0, i32 0
  %5 = load ptr, ptr %4, align 8, !tbaa !20
  %6 = call noundef ptr @_ZNSt13_Rb_tree_nodeISt4pairIKdPN3g2o18EstimatePropagator17AdjacencyMapEntryEEE9_M_valptrEv(ptr noundef nonnull align 8 dereferenceable(48) %5)
  ret ptr %6
}

; Function Attrs: mustprogress nounwind uwtable
define linkonce_odr ptr @_ZNSt8multimapIdPN3g2o18EstimatePropagator17AdjacencyMapEntryESt4lessIdESaISt4pairIKdS3_EEE5beginEv(ptr noundef nonnull align 8 dereferenceable(48) %0) #4 comdat align 2 {
  %2 = alloca %"struct.std::_Rb_tree_iterator", align 8
  %3 = alloca ptr, align 8
  store ptr %0, ptr %3, align 8, !tbaa !121
  %4 = load ptr, ptr %3, align 8
  %5 = getelementptr inbounds nuw %"class.std::multimap", ptr %4, i32 0, i32 0
  %6 = call ptr @_ZNSt8_Rb_treeIdSt4pairIKdPN3g2o18EstimatePropagator17AdjacencyMapEntryEESt10_Select1stIS6_ESt4lessIdESaIS6_EE5beginEv(ptr noundef nonnull align 8 dereferenceable(48) %5) #3
  %7 = getelementptr inbounds nuw %"struct.std::_Rb_tree_iterator", ptr %2, i32 0, i32 0
  store ptr %6, ptr %7, align 8
  %8 = getelementptr inbounds nuw %"struct.std::_Rb_tree_iterator", ptr %2, i32 0, i32 0
  %9 = load ptr, ptr %8, align 8
  ret ptr %9
}

; Function Attrs: mustprogress uwtable
define noundef ptr @_ZN3g2o18EstimatePropagator13PriorityQueue3popEv(ptr noundef nonnull align 8 dereferenceable(48) %0) #6 align 2 {
  %2 = alloca ptr, align 8
  %3 = alloca %"struct.std::_Rb_tree_iterator", align 8
  %4 = alloca ptr, align 8
  %5 = alloca %"struct.std::_Rb_tree_iterator", align 8
  %6 = alloca %"struct.std::_Rb_tree_iterator", align 8
  %7 = alloca %"struct.std::_Rb_tree_iterator", align 8
  store ptr %0, ptr %2, align 8, !tbaa !115
  %8 = load ptr, ptr %2, align 8
  call void @llvm.lifetime.start.p0(i64 8, ptr %3) #3
  %9 = call ptr @_ZNSt8multimapIdPN3g2o18EstimatePropagator17AdjacencyMapEntryESt4lessIdESaISt4pairIKdS3_EEE5beginEv(ptr noundef nonnull align 8 dereferenceable(48) %8) #3
  %10 = getelementptr inbounds nuw %"struct.std::_Rb_tree_iterator", ptr %3, i32 0, i32 0
  store ptr %9, ptr %10, align 8
  call void @llvm.lifetime.start.p0(i64 8, ptr %4) #3
  %11 = call noundef ptr @_ZNKSt17_Rb_tree_iteratorISt4pairIKdPN3g2o18EstimatePropagator17AdjacencyMapEntryEEEptEv(ptr noundef nonnull align 8 dereferenceable(8) %3) #3
  %12 = getelementptr inbounds nuw %"struct.std::pair.88", ptr %11, i32 0, i32 1
  %13 = load ptr, ptr %12, align 8, !tbaa !123
  store ptr %13, ptr %4, align 8, !tbaa !14
  call void @llvm.memcpy.p0.p0.i64(ptr align 8 %5, ptr align 8 %3, i64 8, i1 false), !tbaa.struct !119
  %14 = getelementptr inbounds nuw %"struct.std::_Rb_tree_iterator", ptr %5, i32 0, i32 0
  %15 = load ptr, ptr %14, align 8
  %16 = call ptr @_ZNSt8multimapIdPN3g2o18EstimatePropagator17AdjacencyMapEntryESt4lessIdESaISt4pairIKdS3_EEE5eraseB5cxx11ESt17_Rb_tree_iteratorIS8_E(ptr noundef nonnull align 8 dereferenceable(48) %8, ptr %15)
  %17 = getelementptr inbounds nuw %"struct.std::_Rb_tree_iterator", ptr %6, i32 0, i32 0
  store ptr %16, ptr %17, align 8
  call void @llvm.lifetime.start.p0(i64 8, ptr %7) #3
  %18 = call ptr @_ZNSt8multimapIdPN3g2o18EstimatePropagator17AdjacencyMapEntryESt4lessIdESaISt4pairIKdS3_EEE3endEv(ptr noundef nonnull align 8 dereferenceable(48) %8) #3
  %19 = getelementptr inbounds nuw %"struct.std::_Rb_tree_iterator", ptr %7, i32 0, i32 0
  store ptr %18, ptr %19, align 8
  %20 = load ptr, ptr %4, align 8, !tbaa !14
  %21 = getelementptr inbounds nuw %"class.g2o::EstimatePropagator::AdjacencyMapEntry", ptr %20, i32 0, i32 6
  call void @llvm.memcpy.p0.p0.i64(ptr align 8 %21, ptr align 8 %7, i64 8, i1 false), !tbaa.struct !119
  call void @llvm.lifetime.end.p0(i64 8, ptr %7) #3
  %22 = load ptr, ptr %4, align 8, !tbaa !14
  %23 = getelementptr inbounds nuw %"class.g2o::EstimatePropagator::AdjacencyMapEntry", ptr %22, i32 0, i32 5
  store i8 0, ptr %23, align 4, !tbaa !42
  %24 = load ptr, ptr %4, align 8, !tbaa !14
  call void @llvm.lifetime.end.p0(i64 8, ptr %4) #3
  call void @llvm.lifetime.end.p0(i64 8, ptr %3) #3
  ret ptr %24
}