; Function Attrs: mustprogress nounwind uwtable
define noundef ptr @_ZN3g2o18EstimatePropagator13PriorityQueue3popEv(ptr noundef nonnull align 8 dereferenceable(48) %0) local_unnamed_addr #4 align 2 personality ptr @__gxx_personality_v0 {
  %2 = getelementptr inbounds nuw i8, ptr %0, i64 24
  %3 = load ptr, ptr %2, align 8, !tbaa !13
  %4 = getelementptr inbounds nuw i8, ptr %3, i64 40
  %5 = load ptr, ptr %4, align 8, !tbaa !88
  %6 = getelementptr inbounds nuw i8, ptr %0, i64 8
  %7 = tail call noundef nonnull ptr @_ZSt28_Rb_tree_rebalance_for_erasePSt18_Rb_tree_node_baseRS_(ptr noundef %3, ptr noundef nonnull align 8 dereferenceable(32) %6) #22
  tail call void @_ZdlPvm(ptr noundef nonnull %7, i64 noundef 48) #23
  %8 = getelementptr inbounds nuw i8, ptr %0, i64 40
  %9 = load i64, ptr %8, align 8, !tbaa !15
  %10 = add i64 %9, -1
  store i64 %10, ptr %8, align 8, !tbaa !15
  %11 = getelementptr inbounds nuw i8, ptr %5, i64 80
  store ptr %6, ptr %11, align 8, !tbaa !60
  %12 = getelementptr inbounds nuw i8, ptr %5, i64 76
  store i8 0, ptr %12, align 4, !tbaa !32
  ret ptr %5
}